; ModuleID = 'source-C-CXX/11/452.cpp'
source_filename = "source-C-CXX/11/452.cpp"
target datalayout = "e-m:e-p270:32:32-p271:32:32-p272:64:64-i64:64-f80:128-n8:16:32:64-S128"
target triple = "x86_64-pc-linux-gnu"

%"class.std::ios_base::Init" = type { i8 }
%"class.std::basic_istream" = type { i32 (...)**, i64, %"class.std::basic_ios" }
%"class.std::basic_ios" = type { %"class.std::ios_base", %"class.std::basic_ostream"*, i8, i8, %"class.std::basic_streambuf"*, %"class.std::ctype"*, %"class.std::num_put"*, %"class.std::num_get"* }
%"class.std::ios_base" = type { i32 (...)**, i64, i64, i32, i32, i32, %"struct.std::ios_base::_Callback_list"*, %"struct.std::ios_base::_Words", [8 x %"struct.std::ios_base::_Words"], i32, %"struct.std::ios_base::_Words"*, %"class.std::locale" }
%"struct.std::ios_base::_Callback_list" = type { %"struct.std::ios_base::_Callback_list"*, void (i32, %"class.std::ios_base"*, i32)*, i32, i32 }
%"struct.std::ios_base::_Words" = type { i8*, i64 }
%"class.std::locale" = type { %"class.std::locale::_Impl"* }
%"class.std::locale::_Impl" = type { i32, %"class.std::locale::facet"**, i64, %"class.std::locale::facet"**, i8** }
%"class.std::locale::facet" = type <{ i32 (...)**, i32, [4 x i8] }>
%"class.std::basic_ostream" = type { i32 (...)**, %"class.std::basic_ios" }
%"class.std::basic_streambuf" = type { i32 (...)**, i8*, i8*, i8*, i8*, i8*, i8*, %"class.std::locale" }
%"class.std::ctype" = type <{ %"class.std::locale::facet.base", [4 x i8], %struct.__locale_struct*, i8, [7 x i8], i32*, i32*, i16*, i8, [256 x i8], [256 x i8], i8, [6 x i8] }>
%"class.std::locale::facet.base" = type <{ i32 (...)**, i32 }>
%struct.__locale_struct = type { [13 x %struct.__locale_data*], i16*, i32*, i32*, [13 x i8*] }
%struct.__locale_data = type opaque
%"class.std::num_put" = type { %"class.std::locale::facet.base", [4 x i8] }
%"class.std::num_get" = type { %"class.std::locale::facet.base", [4 x i8] }

@_ZStL8__ioinit = internal global %"class.std::ios_base::Init" zeroinitializer, align 1
@__dso_handle = external hidden global i8
@_ZSt3cin = external global %"class.std::basic_istream", align 8
@_ZSt4cout = external global %"class.std::basic_ostream", align 8
@llvm.global_ctors = appending global [1 x { i32, void ()*, i8* }] [{ i32, void ()*, i8* } { i32 65535, void ()* @_GLOBAL__sub_I_452.cpp, i8* null }]

declare void @_ZNSt8ios_base4InitC1Ev(%"class.std::ios_base::Init"* nonnull align 1 dereferenceable(1)) unnamed_addr #0

; Function Attrs: nounwind
declare void @_ZNSt8ios_base4InitD1Ev(%"class.std::ios_base::Init"* nonnull align 1 dereferenceable(1)) unnamed_addr #1

; Function Attrs: nofree nounwind
declare i32 @__cxa_atexit(void (i8*)*, i8*, i8*) local_unnamed_addr #2

; Function Attrs: mustprogress norecurse sspstrong uwtable
define dso_local i32 @main() local_unnamed_addr #3 {
  %1 = alloca [20 x i32], align 16
  %2 = bitcast [20 x i32]* %1 to i8*
  call void @llvm.lifetime.start.p0i8(i64 80, i8* nonnull %2) #8
  %3 = getelementptr inbounds [20 x i32], [20 x i32]* %1, i64 0, i64 1
  %4 = call nonnull align 8 dereferenceable(16) %"class.std::basic_istream"* @_ZNSirsERi(%"class.std::basic_istream"* nonnull align 8 dereferenceable(16) @_ZSt3cin, i32* nonnull align 4 dereferenceable(4) %3)
  %5 = load i32, i32* %3, align 4, !tbaa !5
  %6 = icmp eq i32 %5, -1
  br i1 %6, label %163, label %7

7:                                                ; preds = %0, %156
  %8 = phi i32 [ %161, %156 ], [ %5, %0 ]
  %9 = icmp eq i32 %8, 0
  br i1 %9, label %128, label %121

10:                                               ; preds = %121
  %11 = trunc i64 %123 to i32
  %12 = icmp ugt i32 %11, 1
  br i1 %12, label %13, label %128

13:                                               ; preds = %10
  %14 = and i64 %123, 4294967295
  %15 = add nsw i64 %14, -1
  %16 = add nsw i64 %14, -9
  %17 = lshr i64 %16, 3
  %18 = add nuw nsw i64 %17, 1
  %19 = icmp ult i64 %15, 8
  %20 = and i64 %15, -8
  %21 = or i64 %20, 1
  %22 = and i64 %18, 1
  %23 = icmp ult i64 %16, 8
  %24 = and i64 %18, 4611686018427387902
  %25 = icmp eq i64 %22, 0
  %26 = icmp eq i64 %15, %20
  br label %27

27:                                               ; preds = %13, %117
  %28 = phi i64 [ 1, %13 ], [ %119, %117 ]
  %29 = phi i32 [ 0, %13 ], [ %118, %117 ]
  %30 = getelementptr inbounds [20 x i32], [20 x i32]* %1, i64 0, i64 %28
  %31 = load i32, i32* %30, align 4, !tbaa !5
  br i1 %19, label %103, label %32

32:                                               ; preds = %27
  %33 = insertelement <4 x i32> <i32 poison, i32 0, i32 0, i32 0>, i32 %29, i32 0
  %34 = insertelement <4 x i32> poison, i32 %31, i32 0
  %35 = shufflevector <4 x i32> %34, <4 x i32> poison, <4 x i32> zeroinitializer
  %36 = insertelement <4 x i32> poison, i32 %31, i32 0
  %37 = shufflevector <4 x i32> %36, <4 x i32> poison, <4 x i32> zeroinitializer
  br i1 %23, label %76, label %38

38:                                               ; preds = %32, %38
  %39 = phi i64 [ %73, %38 ], [ 0, %32 ]
  %40 = phi <4 x i32> [ %71, %38 ], [ %33, %32 ]
  %41 = phi <4 x i32> [ %72, %38 ], [ zeroinitializer, %32 ]
  %42 = phi i64 [ %74, %38 ], [ %24, %32 ]
  %43 = or i64 %39, 1
  %44 = getelementptr inbounds [20 x i32], [20 x i32]* %1, i64 0, i64 %43
  %45 = bitcast i32* %44 to <4 x i32>*
  %46 = load <4 x i32>, <4 x i32>* %45, align 4, !tbaa !5
  %47 = getelementptr inbounds i32, i32* %44, i64 4
  %48 = bitcast i32* %47 to <4 x i32>*
  %49 = load <4 x i32>, <4 x i32>* %48, align 4, !tbaa !5
  %50 = shl nsw <4 x i32> %46, <i32 1, i32 1, i32 1, i32 1>
  %51 = shl nsw <4 x i32> %49, <i32 1, i32 1, i32 1, i32 1>
  %52 = icmp eq <4 x i32> %35, %50
  %53 = icmp eq <4 x i32> %37, %51
  %54 = zext <4 x i1> %52 to <4 x i32>
  %55 = zext <4 x i1> %53 to <4 x i32>
  %56 = add <4 x i32> %40, %54
  %57 = add <4 x i32> %41, %55
  %58 = or i64 %39, 9
  %59 = getelementptr inbounds [20 x i32], [20 x i32]* %1, i64 0, i64 %58
  %60 = bitcast i32* %59 to <4 x i32>*
  %61 = load <4 x i32>, <4 x i32>* %60, align 4, !tbaa !5
  %62 = getelementptr inbounds i32, i32* %59, i64 4
  %63 = bitcast i32* %62 to <4 x i32>*
  %64 = load <4 x i32>, <4 x i32>* %63, align 4, !tbaa !5
  %65 = shl nsw <4 x i32> %61, <i32 1, i32 1, i32 1, i32 1>
  %66 = shl nsw <4 x i32> %64, <i32 1, i32 1, i32 1, i32 1>
  %67 = icmp eq <4 x i32> %35, %65
  %68 = icmp eq <4 x i32> %37, %66
  %69 = zext <4 x i1> %67 to <4 x i32>
  %70 = zext <4 x i1> %68 to <4 x i32>
  %71 = add <4 x i32> %56, %69
  %72 = add <4 x i32> %57, %70
  %73 = add nuw i64 %39, 16
  %74 = add i64 %42, -2
  %75 = icmp eq i64 %74, 0
  br i1 %75, label %76, label %38, !llvm.loop !9

76:                                               ; preds = %38, %32
  %77 = phi <4 x i32> [ undef, %32 ], [ %71, %38 ]
  %78 = phi <4 x i32> [ undef, %32 ], [ %72, %38 ]
  %79 = phi i64 [ 0, %32 ], [ %73, %38 ]
  %80 = phi <4 x i32> [ %33, %32 ], [ %71, %38 ]
  %81 = phi <4 x i32> [ zeroinitializer, %32 ], [ %72, %38 ]
  br i1 %25, label %98, label %82

82:                                               ; preds = %76
  %83 = or i64 %79, 1
  %84 = getelementptr inbounds [20 x i32], [20 x i32]* %1, i64 0, i64 %83
  %85 = getelementptr inbounds i32, i32* %84, i64 4
  %86 = bitcast i32* %85 to <4 x i32>*
  %87 = load <4 x i32>, <4 x i32>* %86, align 4, !tbaa !5
  %88 = shl nsw <4 x i32> %87, <i32 1, i32 1, i32 1, i32 1>
  %89 = icmp eq <4 x i32> %37, %88
  %90 = zext <4 x i1> %89 to <4 x i32>
  %91 = add <4 x i32> %81, %90
  %92 = bitcast i32* %84 to <4 x i32>*
  %93 = load <4 x i32>, <4 x i32>* %92, align 4, !tbaa !5
  %94 = shl nsw <4 x i32> %93, <i32 1, i32 1, i32 1, i32 1>
  %95 = icmp eq <4 x i32> %35, %94
  %96 = zext <4 x i1> %95 to <4 x i32>
  %97 = add <4 x i32> %80, %96
  br label %98

98:                                               ; preds = %76, %82
  %99 = phi <4 x i32> [ %77, %76 ], [ %97, %82 ]
  %100 = phi <4 x i32> [ %78, %76 ], [ %91, %82 ]
  %101 = add <4 x i32> %100, %99
  %102 = call i32 @llvm.vector.reduce.add.v4i32(<4 x i32> %101)
  br i1 %26, label %117, label %103

103:                                              ; preds = %27, %98
  %104 = phi i64 [ 1, %27 ], [ %21, %98 ]
  %105 = phi i32 [ %29, %27 ], [ %102, %98 ]
  br label %106

106:                                              ; preds = %103, %106
  %107 = phi i64 [ %115, %106 ], [ %104, %103 ]
  %108 = phi i32 [ %114, %106 ], [ %105, %103 ]
  %109 = getelementptr inbounds [20 x i32], [20 x i32]* %1, i64 0, i64 %107
  %110 = load i32, i32* %109, align 4, !tbaa !5
  %111 = shl nsw i32 %110, 1
  %112 = icmp eq i32 %31, %111
  %113 = zext i1 %112 to i32
  %114 = add nsw i32 %108, %113
  %115 = add nuw nsw i64 %107, 1
  %116 = icmp eq i64 %115, %14
  br i1 %116, label %117, label %106, !llvm.loop !12

117:                                              ; preds = %106, %98
  %118 = phi i32 [ %102, %98 ], [ %114, %106 ]
  %119 = add nuw nsw i64 %28, 1
  %120 = icmp eq i64 %119, %14
  br i1 %120, label %128, label %27, !llvm.loop !14

121:                                              ; preds = %7, %121
  %122 = phi i64 [ %123, %121 ], [ 1, %7 ]
  %123 = add nuw nsw i64 %122, 1
  %124 = getelementptr inbounds [20 x i32], [20 x i32]* %1, i64 0, i64 %123
  %125 = call nonnull align 8 dereferenceable(16) %"class.std::basic_istream"* @_ZNSirsERi(%"class.std::basic_istream"* nonnull align 8 dereferenceable(16) @_ZSt3cin, i32* nonnull align 4 dereferenceable(4) %124)
  %126 = load i32, i32* %124, align 4, !tbaa !5
  %127 = icmp eq i32 %126, 0
  br i1 %127, label %10, label %121, !llvm.loop !15

128:                                              ; preds = %117, %7, %10
  %129 = phi i32 [ 0, %10 ], [ 0, %7 ], [ %118, %117 ]
  %130 = call nonnull align 8 dereferenceable(8) %"class.std::basic_ostream"* @_ZNSolsEi(%"class.std::basic_ostream"* nonnull align 8 dereferenceable(8) @_ZSt4cout, i32 %129)
  %131 = bitcast %"class.std::basic_ostream"* %130 to i8**
  %132 = load i8*, i8** %131, align 8, !tbaa !16
  %133 = getelementptr i8, i8* %132, i64 -24
  %134 = bitcast i8* %133 to i64*
  %135 = load i64, i64* %134, align 8
  %136 = bitcast %"class.std::basic_ostream"* %130 to i8*
  %137 = add nsw i64 %135, 240
  %138 = getelementptr inbounds i8, i8* %136, i64 %137
  %139 = bitcast i8* %138 to %"class.std::ctype"**
  %140 = load %"class.std::ctype"*, %"class.std::ctype"** %139, align 8, !tbaa !18
  %141 = icmp eq %"class.std::ctype"* %140, null
  br i1 %141, label %142, label %143

142:                                              ; preds = %128
  call void @_ZSt16__throw_bad_castv() #9
  unreachable

143:                                              ; preds = %128
  %144 = getelementptr inbounds %"class.std::ctype", %"class.std::ctype"* %140, i64 0, i32 8
  %145 = load i8, i8* %144, align 8, !tbaa !22
  %146 = icmp eq i8 %145, 0
  br i1 %146, label %150, label %147

147:                                              ; preds = %143
  %148 = getelementptr inbounds %"class.std::ctype", %"class.std::ctype"* %140, i64 0, i32 9, i64 10
  %149 = load i8, i8* %148, align 1, !tbaa !24
  br label %156

150:                                              ; preds = %143
  call void @_ZNKSt5ctypeIcE13_M_widen_initEv(%"class.std::ctype"* nonnull align 8 dereferenceable(570) %140)
  %151 = bitcast %"class.std::ctype"* %140 to i8 (%"class.std::ctype"*, i8)***
  %152 = load i8 (%"class.std::ctype"*, i8)**, i8 (%"class.std::ctype"*, i8)*** %151, align 8, !tbaa !16
  %153 = getelementptr inbounds i8 (%"class.std::ctype"*, i8)*, i8 (%"class.std::ctype"*, i8)** %152, i64 6
  %154 = load i8 (%"class.std::ctype"*, i8)*, i8 (%"class.std::ctype"*, i8)** %153, align 8
  %155 = call signext i8 %154(%"class.std::ctype"* nonnull align 8 dereferenceable(570) %140, i8 signext 10)
  br label %156

156:                                              ; preds = %147, %150
  %157 = phi i8 [ %149, %147 ], [ %155, %150 ]
  %158 = call nonnull align 8 dereferenceable(8) %"class.std::basic_ostream"* @_ZNSo3putEc(%"class.std::basic_ostream"* nonnull align 8 dereferenceable(8) %130, i8 signext %157)
  %159 = call nonnull align 8 dereferenceable(8) %"class.std::basic_ostream"* @_ZNSo5flushEv(%"class.std::basic_ostream"* nonnull align 8 dereferenceable(8) %158)
  %160 = call nonnull align 8 dereferenceable(16) %"class.std::basic_istream"* @_ZNSirsERi(%"class.std::basic_istream"* nonnull align 8 dereferenceable(16) @_ZSt3cin, i32* nonnull align 4 dereferenceable(4) %3)
  %161 = load i32, i32* %3, align 4, !tbaa !5
  %162 = icmp eq i32 %161, -1
  br i1 %162, label %163, label %7, !llvm.loop !25

163:                                              ; preds = %156, %0
  call void @llvm.lifetime.end.p0i8(i64 80, i8* nonnull %2) #8
  ret i32 0
}

; Function Attrs: argmemonly mustprogress nofree nosync nounwind willreturn
declare void @llvm.lifetime.start.p0i8(i64 immarg, i8* nocapture) #4

declare nonnull align 8 dereferenceable(16) %"class.std::basic_istream"* @_ZNSirsERi(%"class.std::basic_istream"* nonnull align 8 dereferenceable(16), i32* nonnull align 4 dereferenceable(4)) local_unnamed_addr #0

declare nonnull align 8 dereferenceable(8) %"class.std::basic_ostream"* @_ZNSolsEi(%"class.std::basic_ostream"* nonnull align 8 dereferenceable(8), i32) local_unnamed_addr #0

; Function Attrs: argmemonly mustprogress nofree nosync nounwind willreturn
declare void @llvm.lifetime.end.p0i8(i64 immarg, i8* nocapture) #4

declare nonnull align 8 dereferenceable(8) %"class.std::basic_ostream"* @_ZNSo3putEc(%"class.std::basic_ostream"* nonnull align 8 dereferenceable(8), i8 signext) local_unnamed_addr #0

declare nonnull align 8 dereferenceable(8) %"class.std::basic_ostream"* @_ZNSo5flushEv(%"class.std::basic_ostream"* nonnull align 8 dereferenceable(8)) local_unnamed_addr #0

; Function Attrs: noreturn
declare void @_ZSt16__throw_bad_castv() local_unnamed_addr #5

declare void @_ZNKSt5ctypeIcE13_M_widen_initEv(%"class.std::ctype"* nonnull align 8 dereferenceable(570)) local_unnamed_addr #0

; Function Attrs: sspstrong uwtable
define internal void @_GLOBAL__sub_I_452.cpp() #6 section ".text.startup" {
  tail call void @_ZNSt8ios_base4InitC1Ev(%"class.std::ios_base::Init"* nonnull align 1 dereferenceable(1) @_ZStL8__ioinit)
  %1 = tail call i32 @__cxa_atexit(void (i8*)* bitcast (void (%"class.std::ios_base::Init"*)* @_ZNSt8ios_base4InitD1Ev to void (i8*)*), i8* getelementptr inbounds (%"class.std::ios_base::Init", %"class.std::ios_base::Init"* @_ZStL8__ioinit, i64 0, i32 0), i8* nonnull @__dso_handle) #8
  ret void
}

; Function Attrs: nofree nosync nounwind readnone willreturn
declare i32 @llvm.vector.reduce.add.v4i32(<4 x i32>) #7


!llvm.module.flags = !{!0, !1, !2, !3}
!llvm.ident = !{!4}

!0 = !{i32 1, !"wchar_size", i32 4}
!1 = !{i32 7, !"PIC Level", i32 2}
!2 = !{i32 7, !"PIE Level", i32 2}
!3 = !{i32 7, !"uwtable", i32 1}
!4 = !{!"clang version 13.0.0"}
!5 = !{!6, !6, i64 0}
!6 = !{!"int", !7, i64 0}
!7 = !{!"omnipotent char", !8, i64 0}
!8 = !{!"Simple C++ TBAA"}
!9 = distinct !{!9, !10, !11}
!10 = !{!"llvm.loop.mustprogress"}
!11 = !{!"llvm.loop.isvectorized", i32 1}
!12 = distinct !{!12, !10, !13, !11}
!13 = !{!"llvm.loop.unroll.runtime.disable"}
!14 = distinct !{!14, !10}
!15 = distinct !{!15, !10}
!16 = !{!17, !17, i64 0}
!17 = !{!"vtable pointer", !8, i64 0}
!18 = !{!19, !20, i64 240}
!19 = !{!"_ZTSSt9basic_iosIcSt11char_traitsIcEE", !20, i64 216, !7, i64 224, !21, i64 225, !20, i64 232, !20, i64 240, !20, i64 248, !20, i64 256}
!20 = !{!"any pointer", !7, i64 0}
!21 = !{!"bool", !7, i64 0}
!22 = !{!23, !7, i64 56}
!23 = !{!"_ZTSSt5ctypeIcE", !20, i64 16, !21, i64 24, !20, i64 32, !20, i64 40, !20, i64 48, !7, i64 56, !7, i64 57, !7, i64 313, !7, i64 569}
!24 = !{!7, !7, i64 0}
!25 = distinct !{!25, !10}
